; ModuleID = '46/2046.c'
source_filename = "46/2046.c"
target datalayout = "e-m:e-p270:32:32-p271:32:32-p272:64:64-i64:64-f80:128-n8:16:32:64-S128"
target triple = "x86_64-pc-linux-gnu"

@.str = private unnamed_addr constant [6 x i8] c"%d %d\00", align 1
@.str.1 = private unnamed_addr constant [3 x i8] c"%d\00", align 1
@.str.2 = private unnamed_addr constant [4 x i8] c"%d\0A\00", align 1

; Function Attrs: noinline nounwind uwtable
define dso_local void @main() #0 {
  %1 = alloca i32, align 4
  %2 = alloca i32, align 4
  %3 = call i32 (i8*, ...) @__isoc99_scanf(i8* getelementptr inbounds ([6 x i8], [6 x i8]* @.str, i64 0, i64 0), i32* %1, i32* %2)
  %4 = load i32, i32* %1, align 4
  %5 = load i32, i32* %2, align 4
  call void @f(i32 %4, i32 %5)
  ret void
}

declare dso_local i32 @__isoc99_scanf(i8*, ...) #1

; Function Attrs: noinline nounwind uwtable
define dso_local void @f(i32 %0, i32 %1) #0 {
  %3 = alloca i32, align 4
  %4 = alloca i32, align 4
  %5 = alloca [100 x [100 x i32]], align 16
  %6 = alloca i32, align 4
  %7 = alloca i32, align 4
  %8 = alloca i32, align 4
  %9 = alloca i32, align 4
  %10 = alloca i32, align 4
  %11 = alloca i32, align 4
  store i32 %0, i32* %3, align 4
  store i32 %1, i32* %4, align 4
  store i32 0, i32* %6, align 4
  store i32 0, i32* %7, align 4
  store i32 0, i32* %8, align 4
  store i32 1, i32* %10, align 4
  store i32 0, i32* %11, align 4
  store i32 0, i32* %6, align 4
  br label %12

12:                                               ; preds = %33, %2
  %13 = load i32, i32* %6, align 4
  %14 = load i32, i32* %3, align 4
  %15 = icmp slt i32 %13, %14
  br i1 %15, label %16, label %36

16:                                               ; preds = %12
  store i32 0, i32* %7, align 4
  br label %17

17:                                               ; preds = %29, %16
  %18 = load i32, i32* %7, align 4
  %19 = load i32, i32* %4, align 4
  %20 = icmp slt i32 %18, %19
  br i1 %20, label %21, label %32

21:                                               ; preds = %17
  %22 = load i32, i32* %6, align 4
  %23 = sext i32 %22 to i64
  %24 = getelementptr inbounds [100 x [100 x i32]], [100 x [100 x i32]]* %5, i64 0, i64 %23
  %25 = load i32, i32* %7, align 4
  %26 = sext i32 %25 to i64
  %27 = getelementptr inbounds [100 x i32], [100 x i32]* %24, i64 0, i64 %26
  %28 = call i32 (i8*, ...) @__isoc99_scanf(i8* getelementptr inbounds ([3 x i8], [3 x i8]* @.str.1, i64 0, i64 0), i32* %27)
  br label %29

29:                                               ; preds = %21
  %30 = load i32, i32* %7, align 4
  %31 = add nsw i32 %30, 1
  store i32 %31, i32* %7, align 4
  br label %17

32:                                               ; preds = %17
  br label %33

33:                                               ; preds = %32
  %34 = load i32, i32* %6, align 4
  %35 = add nsw i32 %34, 1
  store i32 %35, i32* %6, align 4
  br label %12

36:                                               ; preds = %12
  %37 = load i32, i32* %4, align 4
  %38 = load i32, i32* %3, align 4
  %39 = mul nsw i32 %37, %38
  store i32 %39, i32* %9, align 4
  store i32 0, i32* %6, align 4
  store i32 0, i32* %7, align 4
  br label %40

40:                                               ; preds = %36, %170
  br label %41

41:                                               ; preds = %61, %40
  %42 = load i32, i32* %7, align 4
  %43 = load i32, i32* %4, align 4
  %44 = icmp slt i32 %42, %43
  br i1 %44, label %45, label %64

45:                                               ; preds = %41
  %46 = load i32, i32* %6, align 4
  %47 = sext i32 %46 to i64
  %48 = getelementptr inbounds [100 x [100 x i32]], [100 x [100 x i32]]* %5, i64 0, i64 %47
  %49 = load i32, i32* %7, align 4
  %50 = sext i32 %49 to i64
  %51 = getelementptr inbounds [100 x i32], [100 x i32]* %48, i64 0, i64 %50
  %52 = load i32, i32* %51, align 4
  %53 = call i32 (i8*, ...) @printf(i8* getelementptr inbounds ([4 x i8], [4 x i8]* @.str.2, i64 0, i64 0), i32 %52)
  %54 = load i32, i32* %8, align 4
  %55 = add nsw i32 %54, 1
  store i32 %55, i32* %8, align 4
  %56 = load i32, i32* %8, align 4
  %57 = load i32, i32* %9, align 4
  %58 = icmp eq i32 %56, %57
  br i1 %58, label %59, label %60

59:                                               ; preds = %45
  br label %64

60:                                               ; preds = %45
  br label %61

61:                                               ; preds = %60
  %62 = load i32, i32* %7, align 4
  %63 = add nsw i32 %62, 1
  store i32 %63, i32* %7, align 4
  br label %41

64:                                               ; preds = %59, %41
  %65 = load i32, i32* %6, align 4
  %66 = add nsw i32 %65, 1
  store i32 %66, i32* %6, align 4
  %67 = load i32, i32* %7, align 4
  %68 = add nsw i32 %67, -1
  store i32 %68, i32* %7, align 4
  %69 = load i32, i32* %8, align 4
  %70 = load i32, i32* %9, align 4
  %71 = icmp eq i32 %69, %70
  br i1 %71, label %72, label %73

72:                                               ; preds = %64
  br label %181

73:                                               ; preds = %64
  br label %74

74:                                               ; preds = %94, %73
  %75 = load i32, i32* %6, align 4
  %76 = load i32, i32* %3, align 4
  %77 = icmp slt i32 %75, %76
  br i1 %77, label %78, label %97

78:                                               ; preds = %74
  %79 = load i32, i32* %6, align 4
  %80 = sext i32 %79 to i64
  %81 = getelementptr inbounds [100 x [100 x i32]], [100 x [100 x i32]]* %5, i64 0, i64 %80
  %82 = load i32, i32* %7, align 4
  %83 = sext i32 %82 to i64
  %84 = getelementptr inbounds [100 x i32], [100 x i32]* %81, i64 0, i64 %83
  %85 = load i32, i32* %84, align 4
  %86 = call i32 (i8*, ...) @printf(i8* getelementptr inbounds ([4 x i8], [4 x i8]* @.str.2, i64 0, i64 0), i32 %85)
  %87 = load i32, i32* %8, align 4
  %88 = add nsw i32 %87, 1
  store i32 %88, i32* %8, align 4
  %89 = load i32, i32* %8, align 4
  %90 = load i32, i32* %9, align 4
  %91 = icmp eq i32 %89, %90
  br i1 %91, label %92, label %93

92:                                               ; preds = %78
  br label %97

93:                                               ; preds = %78
  br label %94

94:                                               ; preds = %93
  %95 = load i32, i32* %6, align 4
  %96 = add nsw i32 %95, 1
  store i32 %96, i32* %6, align 4
  br label %74

97:                                               ; preds = %92, %74
  %98 = load i32, i32* %7, align 4
  %99 = add nsw i32 %98, -1
  store i32 %99, i32* %7, align 4
  %100 = load i32, i32* %6, align 4
  %101 = add nsw i32 %100, -1
  store i32 %101, i32* %6, align 4
  %102 = load i32, i32* %8, align 4
  %103 = load i32, i32* %9, align 4
  %104 = icmp eq i32 %102, %103
  br i1 %104, label %105, label %106

105:                                              ; preds = %97
  br label %181

106:                                              ; preds = %97
  br label %107

107:                                              ; preds = %127, %106
  %108 = load i32, i32* %7, align 4
  %109 = load i32, i32* %11, align 4
  %110 = icmp sge i32 %108, %109
  br i1 %110, label %111, label %130

111:                                              ; preds = %107
  %112 = load i32, i32* %6, align 4
  %113 = sext i32 %112 to i64
  %114 = getelementptr inbounds [100 x [100 x i32]], [100 x [100 x i32]]* %5, i64 0, i64 %113
  %115 = load i32, i32* %7, align 4
  %116 = sext i32 %115 to i64
  %117 = getelementptr inbounds [100 x i32], [100 x i32]* %114, i64 0, i64 %116
  %118 = load i32, i32* %117, align 4
  %119 = call i32 (i8*, ...) @printf(i8* getelementptr inbounds ([4 x i8], [4 x i8]* @.str.2, i64 0, i64 0), i32 %118)
  %120 = load i32, i32* %8, align 4
  %121 = add nsw i32 %120, 1
  store i32 %121, i32* %8, align 4
  %122 = load i32, i32* %8, align 4
  %123 = load i32, i32* %9, align 4
  %124 = icmp eq i32 %122, %123
  br i1 %124, label %125, label %126

125:                                              ; preds = %111
  br label %130

126:                                              ; preds = %111
  br label %127

127:                                              ; preds = %126
  %128 = load i32, i32* %7, align 4
  %129 = add nsw i32 %128, -1
  store i32 %129, i32* %7, align 4
  br label %107

130:                                              ; preds = %125, %107
  %131 = load i32, i32* %8, align 4
  %132 = load i32, i32* %9, align 4
  %133 = icmp eq i32 %131, %132
  br i1 %133, label %134, label %135

134:                                              ; preds = %130
  br label %181

135:                                              ; preds = %130
  %136 = load i32, i32* %7, align 4
  %137 = add nsw i32 %136, 1
  store i32 %137, i32* %7, align 4
  %138 = load i32, i32* %6, align 4
  %139 = add nsw i32 %138, -1
  store i32 %139, i32* %6, align 4
  br label %140

140:                                              ; preds = %160, %135
  %141 = load i32, i32* %6, align 4
  %142 = load i32, i32* %10, align 4
  %143 = icmp sge i32 %141, %142
  br i1 %143, label %144, label %163

144:                                              ; preds = %140
  %145 = load i32, i32* %6, align 4
  %146 = sext i32 %145 to i64
  %147 = getelementptr inbounds [100 x [100 x i32]], [100 x [100 x i32]]* %5, i64 0, i64 %146
  %148 = load i32, i32* %7, align 4
  %149 = sext i32 %148 to i64
  %150 = getelementptr inbounds [100 x i32], [100 x i32]* %147, i64 0, i64 %149
  %151 = load i32, i32* %150, align 4
  %152 = call i32 (i8*, ...) @printf(i8* getelementptr inbounds ([4 x i8], [4 x i8]* @.str.2, i64 0, i64 0), i32 %151)
  %153 = load i32, i32* %8, align 4
  %154 = add nsw i32 %153, 1
  store i32 %154, i32* %8, align 4
  %155 = load i32, i32* %8, align 4
  %156 = load i32, i32* %9, align 4
  %157 = icmp eq i32 %155, %156
  br i1 %157, label %158, label %159

158:                                              ; preds = %144
  br label %163

159:                                              ; preds = %144
  br label %160

160:                                              ; preds = %159
  %161 = load i32, i32* %6, align 4
  %162 = add nsw i32 %161, -1
  store i32 %162, i32* %6, align 4
  br label %140

163:                                              ; preds = %158, %140
  %164 = load i32, i32* %7, align 4
  %165 = add nsw i32 %164, 1
  store i32 %165, i32* %7, align 4
  %166 = load i32, i32* %8, align 4
  %167 = load i32, i32* %9, align 4
  %168 = icmp eq i32 %166, %167
  br i1 %168, label %169, label %170

169:                                              ; preds = %163
  br label %181

170:                                              ; preds = %163
  %171 = load i32, i32* %6, align 4
  %172 = add nsw i32 %171, 1
  store i32 %172, i32* %6, align 4
  %173 = load i32, i32* %4, align 4
  %174 = add nsw i32 %173, -1
  store i32 %174, i32* %4, align 4
  %175 = load i32, i32* %3, align 4
  %176 = add nsw i32 %175, -1
  store i32 %176, i32* %3, align 4
  %177 = load i32, i32* %11, align 4
  %178 = add nsw i32 %177, 1
  store i32 %178, i32* %11, align 4
  %179 = load i32, i32* %10, align 4
  %180 = add nsw i32 %179, 1
  store i32 %180, i32* %10, align 4
  br label %40

181:                                              ; preds = %169, %134, %105, %72
  ret void
}

declare dso_local i32 @printf(i8*, ...) #1


!llvm.module.flags = !{!0}
!llvm.ident = !{!1}

!0 = !{i32 1, !"wchar_size", i32 4}
!1 = !{!"clang version 10.0.0-4ubuntu1 "}
